(dp0
S'accept_links'
p1
I00
sS'modem_sound'
p2
I00
sS'latest_version'
p3
S'5.0.2'
p4
sS'installed_version'
p5
g4
sS'check_for_updates'
p6
I00
sS'mirror'
p7
S'https://www.torproject.org/dist/'
p8
sS'tbl_version'
p9
S'0.1.9'
p10
sS'update_over_tor'
p11
I01
sS'last_update_check_timestamp'
p12
I1441927361
s.